target datalayout = "e-m:e-p270:32:32-p271:32:32-p272:64:64-i64:64-i128:128-f80:128-n8:16:32:64-S128"
target triple = "x86_64-pc-linux-gnu"

%"class.facebook::yoga::Node" = type { i8, ptr, ptr, ptr, ptr, %"class.facebook::yoga::Style", %"struct.facebook::yoga::LayoutResults", i64, i64, ptr, %"class.std::vector", ptr, %"struct.std::array.8" }
%"class.facebook::yoga::Style" = type { i32, %"class.facebook::yoga::StyleValueHandle", %"class.facebook::yoga::StyleValueHandle", %"class.facebook::yoga::StyleValueHandle", %"class.facebook::yoga::StyleValueHandle", %"struct.std::array", %"struct.std::array", %"struct.std::array", %"struct.std::array", %"struct.std::array.0", %"struct.std::array.1", %"struct.std::array.1", %"struct.std::array.1", %"class.facebook::yoga::StyleValueHandle", %"class.facebook::yoga::StyleValuePool" }
%"struct.std::array" = type { [9 x %"class.facebook::yoga::StyleValueHandle"] }
%"struct.std::array.0" = type { [3 x %"class.facebook::yoga::StyleValueHandle"] }
%"struct.std::array.1" = type { [2 x %"class.facebook::yoga::StyleValueHandle"] }
%"class.facebook::yoga::StyleValueHandle" = type { i16 }
%"class.facebook::yoga::StyleValuePool" = type { %"class.facebook::yoga::SmallValueBuffer" }
%"class.facebook::yoga::SmallValueBuffer" = type { i16, %"struct.std::array.2", %"class.std::bitset", %"class.std::unique_ptr" }
%"struct.std::array.2" = type { [4 x i32] }
%"class.std::bitset" = type { %"struct.std::_Base_bitset" }
%"struct.std::_Base_bitset" = type { i64 }
%"class.std::unique_ptr" = type { %"struct.std::__uniq_ptr_data" }
%"struct.std::__uniq_ptr_data" = type { %"class.std::__uniq_ptr_impl" }
%"class.std::__uniq_ptr_impl" = type { %"class.std::tuple" }
%"class.std::tuple" = type { %"struct.std::_Tuple_impl" }
%"struct.std::_Tuple_impl" = type { %"struct.std::_Head_base.4" }
%"struct.std::_Head_base.4" = type { ptr }
%"struct.facebook::yoga::LayoutResults" = type { i32, %"struct.facebook::yoga::FloatOptional", i32, i32, i8, i32, %"struct.std::array.5", %"struct.facebook::yoga::CachedMeasurement", i8, %"struct.std::array.6", %"struct.std::array.6", %"struct.std::array.7", %"struct.std::array.7", %"struct.std::array.7", %"struct.std::array.7" }
%"struct.facebook::yoga::FloatOptional" = type { float }
%"struct.std::array.5" = type { [8 x %"struct.facebook::yoga::CachedMeasurement"] }
%"struct.facebook::yoga::CachedMeasurement" = type { float, float, i32, i32, float, float }
%"struct.std::array.6" = type { [2 x float] }
%"struct.std::array.7" = type { [4 x float] }
%"class.std::vector" = type { %"struct.std::_Vector_base" }
%"struct.std::_Vector_base" = type { %"struct.std::_Vector_base<facebook::yoga::Node *, std::allocator<facebook::yoga::Node *>>::_Vector_impl" }
%"struct.std::_Vector_base<facebook::yoga::Node *, std::allocator<facebook::yoga::Node *>>::_Vector_impl" = type { %"struct.std::_Vector_base<facebook::yoga::Node *, std::allocator<facebook::yoga::Node *>>::_Vector_impl_data" }
%"struct.std::_Vector_base<facebook::yoga::Node *, std::allocator<facebook::yoga::Node *>>::_Vector_impl_data" = type { ptr, ptr, ptr }
%"struct.std::array.8" = type { [2 x %"class.facebook::yoga::StyleSizeLength"] }
%"class.facebook::yoga::StyleSizeLength" = type <{ %"struct.facebook::yoga::FloatOptional", i8, [3 x i8] }>
%struct.YGSize = type { float, float }

@.str.1 = private unnamed_addr constant [78 x i8] c"Measure function returned an invalid dimension to Yoga: [width=%f, height=%f]\00", align 1

; Function Attrs: inlinehint mustprogress nounwind uwtable
define linkonce_odr noundef nonnull align 4 dereferenceable(4) ptr @_ZSt3maxIfERKT_S2_S2_(ptr noundef nonnull align 4 dereferenceable(4) %0, ptr noundef nonnull align 4 dereferenceable(4) %1) #6 comdat {
  %3 = alloca ptr, align 8
  %4 = alloca ptr, align 8
  %5 = alloca ptr, align 8
  store ptr %0, ptr %4, align 8, !tbaa !235
  store ptr %1, ptr %5, align 8, !tbaa !235
  %6 = load ptr, ptr %4, align 8, !tbaa !235
  %7 = load float, ptr %6, align 4, !tbaa !81
  %8 = load ptr, ptr %5, align 8, !tbaa !235
  %9 = load float, ptr %8, align 4, !tbaa !81
  %10 = fcmp olt float %7, %9
  br i1 %10, label %11, label %13

11:                                               ; preds = %2
  %12 = load ptr, ptr %5, align 8, !tbaa !235
  store ptr %12, ptr %3, align 8
  br label %15

13:                                               ; preds = %2
  %14 = load ptr, ptr %4, align 8, !tbaa !235
  store ptr %14, ptr %3, align 8
  br label %15

15:                                               ; preds = %13, %11
  %16 = load ptr, ptr %3, align 8
  ret ptr %16
}

; Function Attrs: mustprogress nounwind uwtable
define linkonce_odr hidden noundef zeroext i1 @_ZN8facebook4yoga9isDefinedITkSt14floating_pointfEEbT_(float noundef %0) #7 comdat {
  %2 = alloca float, align 4
  store float %0, ptr %2, align 4, !tbaa !81
  %3 = load float, ptr %2, align 4, !tbaa !81
  %4 = call noundef zeroext i1 @_ZN8facebook4yoga11isUndefinedITkSt14floating_pointfEEbT_(float noundef %3)
  %5 = xor i1 %4, true
  ret i1 %5
}

; Function Attrs: mustprogress uwtable
define linkonce_odr hidden noundef float @_ZN8facebook4yoga12maxOrDefinedITkSt14floating_pointfTkSt14floating_pointfEEDaT_T0_(float noundef %0, float noundef %1) #4 comdat {
  %3 = alloca float, align 4
  %4 = alloca float, align 4
  %5 = alloca float, align 4
  store float %0, ptr %4, align 4, !tbaa !81
  store float %1, ptr %5, align 4, !tbaa !81
  %6 = load float, ptr %4, align 4, !tbaa !81
  %7 = call noundef zeroext i1 @_ZN8facebook4yoga9isDefinedITkSt14floating_pointfEEbT_(float noundef %6)
  br i1 %7, label %8, label %14

8:                                                ; preds = %2
  %9 = load float, ptr %5, align 4, !tbaa !81
  %10 = call noundef zeroext i1 @_ZN8facebook4yoga9isDefinedITkSt14floating_pointfEEbT_(float noundef %9)
  br i1 %10, label %11, label %14

11:                                               ; preds = %8
  %12 = call noundef nonnull align 4 dereferenceable(4) ptr @_ZSt3maxIfERKT_S2_S2_(ptr noundef nonnull align 4 dereferenceable(4) %4, ptr noundef nonnull align 4 dereferenceable(4) %5)
  %13 = load float, ptr %12, align 4, !tbaa !81
  store float %13, ptr %3, align 4
  br label %23

14:                                               ; preds = %8, %2
  %15 = load float, ptr %4, align 4, !tbaa !81
  %16 = call noundef zeroext i1 @_ZN8facebook4yoga11isUndefinedITkSt14floating_pointfEEbT_(float noundef %15)
  br i1 %16, label %17, label %19

17:                                               ; preds = %14
  %18 = load float, ptr %5, align 4, !tbaa !81
  br label %21

19:                                               ; preds = %14
  %20 = load float, ptr %4, align 4, !tbaa !81
  br label %21

21:                                               ; preds = %19, %17
  %22 = phi float [ %18, %17 ], [ %20, %19 ]
  store float %22, ptr %3, align 4
  br label %23

23:                                               ; preds = %21, %11
  %24 = load float, ptr %3, align 4
  ret float %24
}

; Function Attrs: mustprogress nounwind uwtable
define linkonce_odr hidden noundef zeroext i1 @_ZN8facebook4yoga11isUndefinedITkSt14floating_pointfEEbT_(float noundef %0) #7 comdat {
  %2 = alloca float, align 4
  store float %0, ptr %2, align 4, !tbaa !81
  %3 = load float, ptr %2, align 4, !tbaa !81
  %4 = load float, ptr %2, align 4, !tbaa !81
  %5 = fcmp une float %3, %4
  ret i1 %5
}

; Function Attrs: mustprogress nounwind uwtable
define linkonce_odr hidden noundef i32 @_ZN8facebook4yoga12unscopedEnumENS0_11MeasureModeE(i8 noundef zeroext %0) #7 comdat {
  %2 = alloca i8, align 1
  store i8 %0, ptr %2, align 1, !tbaa !97
  %3 = load i8, ptr %2, align 1, !tbaa !97
  %4 = zext i8 %3 to i32
  ret i32 %4
}

; Function Attrs: mustprogress uwtable
define <2 x float> @_ZN8facebook4yoga4Node7measureEfNS0_11MeasureModeEfS2_(ptr noundef nonnull align 8 dereferenceable(584) %0, float noundef %1, i8 noundef zeroext %2, float noundef %3, i8 noundef zeroext %4) #11 align 2 {
  %6 = alloca %struct.YGSize, align 4
  %7 = alloca ptr, align 8
  %8 = alloca float, align 4
  %9 = alloca i8, align 1
  %10 = alloca float, align 4
  %11 = alloca i8, align 1
  %12 = alloca %struct.YGSize, align 4
  %13 = alloca i32, align 4
  store ptr %0, ptr %7, align 8, !tbaa !4
  store float %1, ptr %8, align 4, !tbaa !81
  store i8 %2, ptr %9, align 1, !tbaa !97
  store float %3, ptr %10, align 4, !tbaa !81
  store i8 %4, ptr %11, align 1, !tbaa !97
  %14 = load ptr, ptr %7, align 8
  call void @llvm.lifetime.start.p0(i64 8, ptr %12) #3
  %15 = getelementptr inbounds nuw %"class.facebook::yoga::Node", ptr %14, i32 0, i32 2
  %16 = load ptr, ptr %15, align 8, !tbaa !59
  %17 = load float, ptr %8, align 4, !tbaa !81
  %18 = load i8, ptr %9, align 1, !tbaa !97
  %19 = call noundef i32 @_ZN8facebook4yoga12unscopedEnumENS0_11MeasureModeE(i8 noundef zeroext %18)
  %20 = load float, ptr %10, align 4, !tbaa !81
  %21 = load i8, ptr %11, align 1, !tbaa !97
  %22 = call noundef i32 @_ZN8facebook4yoga12unscopedEnumENS0_11MeasureModeE(i8 noundef zeroext %21)
  %23 = call <2 x float> %16(ptr noundef %14, float noundef %17, i32 noundef %19, float noundef %20, i32 noundef %22)
  store <2 x float> %23, ptr %12, align 4
  %24 = getelementptr inbounds nuw %struct.YGSize, ptr %12, i32 0, i32 1
  %25 = load float, ptr %24, align 4, !tbaa !99
  %26 = call noundef zeroext i1 @_ZN8facebook4yoga11isUndefinedITkSt14floating_pointfEEbT_(float noundef %25)
  br i1 %26, label %39, label %27

27:                                               ; preds = %5
  %28 = getelementptr inbounds nuw %struct.YGSize, ptr %12, i32 0, i32 1
  %29 = load float, ptr %28, align 4, !tbaa !99
  %30 = fcmp olt float %29, 0.000000e+00
  br i1 %30, label %39, label %31

31:                                               ; preds = %27
  %32 = getelementptr inbounds nuw %struct.YGSize, ptr %12, i32 0, i32 0
  %33 = load float, ptr %32, align 4, !tbaa !101
  %34 = call noundef zeroext i1 @_ZN8facebook4yoga11isUndefinedITkSt14floating_pointfEEbT_(float noundef %33)
  br i1 %34, label %39, label %35

35:                                               ; preds = %31
  %36 = getelementptr inbounds nuw %struct.YGSize, ptr %12, i32 0, i32 0
  %37 = load float, ptr %36, align 4, !tbaa !101
  %38 = fcmp olt float %37, 0.000000e+00
  br i1 %38, label %39, label %54

39:                                               ; preds = %35, %31, %27, %5
  %40 = getelementptr inbounds nuw %struct.YGSize, ptr %12, i32 0, i32 0
  %41 = load float, ptr %40, align 4, !tbaa !101
  %42 = fpext float %41 to double
  %43 = getelementptr inbounds nuw %struct.YGSize, ptr %12, i32 0, i32 1
  %44 = load float, ptr %43, align 4, !tbaa !99
  %45 = fpext float %44 to double
  call void (ptr, i8, ptr, ...) @_ZN8facebook4yoga3logEPKNS0_4NodeENS0_8LogLevelEPKcz(ptr noundef %14, i8 noundef zeroext 1, ptr noundef @.str.1, double noundef %42, double noundef %45) #3
  %46 = getelementptr inbounds nuw %struct.YGSize, ptr %6, i32 0, i32 0
  %47 = getelementptr inbounds nuw %struct.YGSize, ptr %12, i32 0, i32 0
  %48 = load float, ptr %47, align 4, !tbaa !101
  %49 = call noundef float @_ZN8facebook4yoga12maxOrDefinedITkSt14floating_pointfTkSt14floating_pointfEEDaT_T0_(float noundef 0.000000e+00, float noundef %48)
  store float %49, ptr %46, align 4, !tbaa !101
  %50 = getelementptr inbounds nuw %struct.YGSize, ptr %6, i32 0, i32 1
  %51 = getelementptr inbounds nuw %struct.YGSize, ptr %12, i32 0, i32 1
  %52 = load float, ptr %51, align 4, !tbaa !99
  %53 = call noundef float @_ZN8facebook4yoga12maxOrDefinedITkSt14floating_pointfTkSt14floating_pointfEEDaT_T0_(float noundef 0.000000e+00, float noundef %52)
  store float %53, ptr %50, align 4, !tbaa !99
  store i32 1, ptr %13, align 4
  br label %55

54:                                               ; preds = %35
  call void @llvm.memcpy.p0.p0.i64(ptr align 4 %6, ptr align 4 %12, i64 8, i1 false), !tbaa.struct !102
  store i32 1, ptr %13, align 4
  br label %55

55:                                               ; preds = %54, %39
  call void @llvm.lifetime.end.p0(i64 8, ptr %12) #3
  %56 = load <2 x float>, ptr %6, align 4
  ret <2 x float> %56
}