; Function Attrs: mustprogress uwtable
define <2 x float> @_ZN8facebook4yoga4Node7measureEfNS0_11MeasureModeEfS2_(ptr noundef nonnull align 8 dereferenceable(584) %0, float noundef %1, i8 noundef zeroext %2, float noundef %3, i8 noundef zeroext %4) local_unnamed_addr #10 align 2 {
  %6 = getelementptr inbounds nuw i8, ptr %0, i64 16
  %7 = load ptr, ptr %6, align 8, !tbaa !80
  %8 = zext i8 %2 to i32
  %9 = zext i8 %4 to i32
  %10 = tail call <2 x float> %7(ptr noundef nonnull %0, float noundef %1, i32 noundef %8, float noundef %3, i32 noundef %9)
  %.sroa.0.4.vec.extract = extractelement <2 x float> %10, i64 1
  %or.cond = fcmp ult float %.sroa.0.4.vec.extract, 0.000000e+00
  %.sroa.0.0.vec.extract = extractelement <2 x float> %10, i64 0
  %or.cond5 = fcmp ult float %.sroa.0.0.vec.extract, 0.000000e+00
  %or.cond26 = select i1 %or.cond, i1 true, i1 %or.cond5
  br i1 %or.cond26, label %11, label %18

11:                                               ; preds = %5
  %12 = fpext float %.sroa.0.0.vec.extract to double
  %13 = fpext float %.sroa.0.4.vec.extract to double
  tail call void (ptr, i8, ptr, ...) @_ZN8facebook4yoga3logEPKNS0_4NodeENS0_8LogLevelEPKcz(ptr noundef nonnull %0, i8 noundef zeroext 1, ptr noundef nonnull @.str.1, double noundef %12, double noundef %13) #25
  %14 = fcmp ogt float %.sroa.0.0.vec.extract, 0.000000e+00
  %15 = select i1 %14, float %.sroa.0.0.vec.extract, float 0.000000e+00
  %.sroa.021.0.vec.insert = insertelement <2 x float> poison, float %15, i64 0
  %16 = fcmp ogt float %.sroa.0.4.vec.extract, 0.000000e+00
  %17 = select i1 %16, float %.sroa.0.4.vec.extract, float 0.000000e+00
  %.sroa.021.4.vec.insert = insertelement <2 x float> %.sroa.021.0.vec.insert, float %17, i64 1
  br label %18

18:                                               ; preds = %5, %11
  %.sroa.021.0 = phi <2 x float> [ %.sroa.021.4.vec.insert, %11 ], [ %10, %5 ]
  ret <2 x float> %.sroa.021.0
}